ccopy_reg
_reconstructor
p0
(csklearn.dummy
DummyClassifier
p1
c__builtin__
object
p2
Ntp3
Rp4
(dp5
S'constant'
p6
NsS'n_outputs_'
p7
I1
sS'n_classes_'
p8
I2
sS'classes_'
p9
cnumpy.core.multiarray
_reconstruct
p10
(cnumpy
ndarray
p11
(I0
tp12
S'b'
p13
tp14
Rp15
(I1
(I2
tp16
cnumpy
dtype
p17
(S'i8'
p18
I0
I1
tp19
Rp20
(I3
S'<'
p21
NNNI-1
I-1
I0
tp22
bI00
S'\x00\x00\x00\x00\x00\x00\x00\x00\x01\x00\x00\x00\x00\x00\x00\x00'
p23
tp24
bsS'strategy'
p25
S'stratified'
p26
sS'random_state'
p27
NsS'class_prior_'
p28
g10
(g11
(I0
tp29
g13
tp30
Rp31
(I1
(I2
tp32
g17
(S'f8'
p33
I0
I1
tp34
Rp35
(I3
S'<'
p36
NNNI-1
I-1
I0
tp37
bI00
S'_\xc3\xb5\x12\x06\xf2\xe8?\x84\xf2(\xb5\xe77\xcc?'
p38
tp39
bsS'output_2d_'
p40
I00
sb.