ccopy_reg
_reconstructor
p0
(csklearn.dummy
DummyClassifier
p1
c__builtin__
object
p2
Ntp3
Rp4
(dp5
S'class_prior_'
p6
cnumpy.core.multiarray
_reconstruct
p7
(cnumpy
ndarray
p8
(I0
tp9
S'b'
p10
tp11
Rp12
(I1
(I2
tp13
cnumpy
dtype
p14
(S'f8'
p15
I0
I1
tp16
Rp17
(I3
S'<'
p18
NNNI-1
I-1
I0
tp19
bI00
S'w\xf9\xeaA8r\xe6?\x12\r*|\x8f\x1b\xd3?'
p20
tp21
bsS'n_outputs_'
p22
I1
sS'n_classes_'
p23
I2
sS'classes_'
p24
g7
(g8
(I0
tp25
g10
tp26
Rp27
(I1
(I2
tp28
g14
(S'i8'
p29
I0
I1
tp30
Rp31
(I3
S'<'
p32
NNNI-1
I-1
I0
tp33
bI00
S'\x00\x00\x00\x00\x00\x00\x00\x00\x01\x00\x00\x00\x00\x00\x00\x00'
p34
tp35
bsS'strategy'
p36
S'stratified'
p37
sS'random_state'
p38
NsS'output_2d_'
p39
I00
sb.